; Function Attrs: nounwind uwtable
define internal ptr @get_context_switches(ptr readnone captures(none) %0, ptr noundef %1) #0 {
  %3 = getelementptr i8, ptr %1, i64 8
  %.val = load ptr, ptr %3, align 8, !tbaa !3
  %4 = getelementptr i8, ptr %.val, i64 168
  %.val10 = load i64, ptr %4, align 8, !tbaa !9
  %5 = and i64 %.val10, 16777216
  %.not = icmp eq i64 %5, 0
  br i1 %.not, label %6, label %7

6:                                                ; preds = %2
  tail call void @__assert_fail(ptr noundef nonnull @.str.51, ptr noundef nonnull @.str.32, i32 noundef 732, ptr noundef nonnull @__PRETTY_FUNCTION__.get_context_switches) #7
  unreachable

7:                                                ; preds = %2
  %8 = tail call i64 @PyLong_AsLong(ptr noundef nonnull %1) #6
  %or.cond = icmp ugt i64 %8, 1
  br i1 %or.cond, label %9, label %12

9:                                                ; preds = %7
  %10 = load ptr, ptr @PyExc_ValueError, align 8, !tbaa !21
  %11 = tail call ptr (ptr, ptr, ...) @PyErr_Format(ptr noundef %10, ptr noundef nonnull @.str.61, i64 noundef %8) #6
  br label %_Py_NewRef.exit

12:                                               ; preds = %7
  %13 = getelementptr [2 x ptr], ptr @context_switches, i64 0, i64 %8
  %14 = load ptr, ptr %13, align 8, !tbaa !21
  %15 = icmp eq ptr %14, null
  br i1 %15, label %16, label %18

16:                                               ; preds = %12
  %17 = tail call ptr @PyList_New(i64 noundef 0) #6
  br label %_Py_NewRef.exit

18:                                               ; preds = %12
  %19 = load i32, ptr %14, align 8, !tbaa !22
  %20 = icmp slt i32 %19, 0
  br i1 %20, label %_Py_NewRef.exit, label %21

21:                                               ; preds = %18
  %22 = add nuw i32 %19, 1
  store i32 %22, ptr %14, align 8, !tbaa !22
  br label %_Py_NewRef.exit

_Py_NewRef.exit:                                  ; preds = %21, %18, %16, %9
  %.0 = phi ptr [ null, %9 ], [ %17, %16 ], [ %14, %18 ], [ %14, %21 ]
  ret ptr %.0
}